target datalayout = "e-m:e-p270:32:32-p271:32:32-p272:64:64-i64:64-i128:128-f80:128-n8:16:32:64-S128"
target triple = "x86_64-pc-linux-gnu"

%struct._IStateCoder = type { ptr, ptr, ptr, ptr, ptr }
%struct.CMixCoder = type { ptr, ptr, i32, [3 x i32], [3 x i64], [3 x i64], [4 x i64], [4 x %struct._IStateCoder] }

; Function Attrs: nounwind uwtable
define void @MixCoder_Init(ptr noundef %0) #0 {
  %2 = alloca ptr, align 8
  %3 = alloca i32, align 4
  %4 = alloca ptr, align 8
  store ptr %0, ptr %2, align 8
  store i32 0, ptr %3, align 4
  br label %5

5:                                                ; preds = %28, %1
  %6 = load i32, ptr %3, align 4
  %7 = load ptr, ptr %2, align 8
  %8 = getelementptr inbounds %struct.CMixCoder, ptr %7, i32 0, i32 2
  %9 = load i32, ptr %8, align 8
  %10 = sub nsw i32 %9, 1
  %11 = icmp slt i32 %6, %10
  br i1 %11, label %12, label %31

12:                                               ; preds = %5
  %13 = load ptr, ptr %2, align 8
  %14 = getelementptr inbounds %struct.CMixCoder, ptr %13, i32 0, i32 5
  %15 = load i32, ptr %3, align 4
  %16 = sext i32 %15 to i64
  %17 = getelementptr inbounds [3 x i64], ptr %14, i64 0, i64 %16
  store i64 0, ptr %17, align 8
  %18 = load ptr, ptr %2, align 8
  %19 = getelementptr inbounds %struct.CMixCoder, ptr %18, i32 0, i32 4
  %20 = load i32, ptr %3, align 4
  %21 = sext i32 %20 to i64
  %22 = getelementptr inbounds [3 x i64], ptr %19, i64 0, i64 %21
  store i64 0, ptr %22, align 8
  %23 = load ptr, ptr %2, align 8
  %24 = getelementptr inbounds %struct.CMixCoder, ptr %23, i32 0, i32 3
  %25 = load i32, ptr %3, align 4
  %26 = sext i32 %25 to i64
  %27 = getelementptr inbounds [3 x i32], ptr %24, i64 0, i64 %26
  store i32 0, ptr %27, align 4
  br label %28

28:                                               ; preds = %12
  %29 = load i32, ptr %3, align 4
  %30 = add nsw i32 %29, 1
  store i32 %30, ptr %3, align 4
  br label %5

31:                                               ; preds = %5
  store i32 0, ptr %3, align 4
  br label %32

32:                                               ; preds = %50, %31
  %33 = load i32, ptr %3, align 4
  %34 = load ptr, ptr %2, align 8
  %35 = getelementptr inbounds %struct.CMixCoder, ptr %34, i32 0, i32 2
  %36 = load i32, ptr %35, align 8
  %37 = icmp slt i32 %33, %36
  br i1 %37, label %38, label %53

38:                                               ; preds = %32
  %39 = load ptr, ptr %2, align 8
  %40 = getelementptr inbounds %struct.CMixCoder, ptr %39, i32 0, i32 7
  %41 = load i32, ptr %3, align 4
  %42 = sext i32 %41 to i64
  %43 = getelementptr inbounds [4 x %struct._IStateCoder], ptr %40, i64 0, i64 %42
  store ptr %43, ptr %4, align 8
  %44 = load ptr, ptr %4, align 8
  %45 = getelementptr inbounds %struct._IStateCoder, ptr %44, i32 0, i32 3
  %46 = load ptr, ptr %45, align 8
  %47 = load ptr, ptr %4, align 8
  %48 = getelementptr inbounds %struct._IStateCoder, ptr %47, i32 0, i32 0
  %49 = load ptr, ptr %48, align 8
  call void %46(ptr noundef %49)
  br label %50

50:                                               ; preds = %38
  %51 = load i32, ptr %3, align 4
  %52 = add nsw i32 %51, 1
  store i32 %52, ptr %3, align 4
  br label %32

53:                                               ; preds = %32
  ret void
}