; Function Attrs: nounwind uwtable
define void @MixCoder_Init(ptr noundef captures(none) %0) local_unnamed_addr #1 {
  %2 = getelementptr inbounds nuw i8, ptr %0, i64 16
  %3 = load i32, ptr %2, align 8
  %4 = icmp sgt i32 %3, 1
  br i1 %4, label %.lr.ph, label %.preheader

.lr.ph:                                           ; preds = %1
  %5 = add nsw i32 %3, -1
  %6 = getelementptr inbounds nuw i8, ptr %0, i64 56
  %7 = getelementptr inbounds nuw i8, ptr %0, i64 32
  %8 = getelementptr inbounds nuw i8, ptr %0, i64 20
  %wide.trip.count = zext nneg i32 %5 to i64
  br label %11

.preheader:                                       ; preds = %11, %1
  %9 = icmp sgt i32 %3, 0
  br i1 %9, label %.lr.ph17, label %._crit_edge

.lr.ph17:                                         ; preds = %.preheader
  %10 = getelementptr inbounds nuw i8, ptr %0, i64 112
  br label %15

11:                                               ; preds = %.lr.ph, %11
  %indvars.iv = phi i64 [ 0, %.lr.ph ], [ %indvars.iv.next, %11 ]
  %12 = getelementptr inbounds nuw [3 x i64], ptr %6, i64 0, i64 %indvars.iv
  store i64 0, ptr %12, align 8
  %13 = getelementptr inbounds nuw [3 x i64], ptr %7, i64 0, i64 %indvars.iv
  store i64 0, ptr %13, align 8
  %14 = getelementptr inbounds nuw [3 x i32], ptr %8, i64 0, i64 %indvars.iv
  store i32 0, ptr %14, align 4
  %indvars.iv.next = add nuw nsw i64 %indvars.iv, 1
  %exitcond.not = icmp eq i64 %indvars.iv.next, %wide.trip.count
  br i1 %exitcond.not, label %.preheader, label %11

15:                                               ; preds = %.lr.ph17, %15
  %indvars.iv19 = phi i64 [ 0, %.lr.ph17 ], [ %indvars.iv.next20, %15 ]
  %16 = getelementptr inbounds nuw [4 x %struct._IStateCoder], ptr %10, i64 0, i64 %indvars.iv19
  %17 = getelementptr inbounds nuw i8, ptr %16, i64 24
  %18 = load ptr, ptr %17, align 8
  %19 = load ptr, ptr %16, align 8
  tail call void %18(ptr noundef %19) #10
  %indvars.iv.next20 = add nuw nsw i64 %indvars.iv19, 1
  %20 = load i32, ptr %2, align 8
  %21 = sext i32 %20 to i64
  %22 = icmp slt i64 %indvars.iv.next20, %21
  br i1 %22, label %15, label %._crit_edge

._crit_edge:                                      ; preds = %15, %.preheader
  ret void
}